target datalayout = "e-m:e-p270:32:32-p271:32:32-p272:64:64-i64:64-i128:128-f80:128-n8:16:32:64-S128"
target triple = "x86_64-pc-linux-gnu"

%struct.GlyphInfo = type { float, float, i16, i16, i16, i8, float, float, ptr, ptr }

; Function Attrs: nounwind uwtable
define float @Java_sun_font_FreetypeFontScaler_getGlyphAdvanceNative(ptr noundef %0, ptr noundef %1, ptr noundef %2, i64 noundef %3, i64 noundef %4, i32 noundef %5) #0 {
  %7 = alloca ptr, align 8
  %8 = alloca ptr, align 8
  %9 = alloca ptr, align 8
  %10 = alloca i64, align 8
  %11 = alloca i64, align 8
  %12 = alloca i32, align 4
  %13 = alloca ptr, align 8
  %14 = alloca float, align 4
  %15 = alloca i64, align 8
  store ptr %0, ptr %7, align 8
  store ptr %1, ptr %8, align 8
  store ptr %2, ptr %9, align 8
  store i64 %3, ptr %10, align 8
  store i64 %4, ptr %11, align 8
  store i32 %5, ptr %12, align 4
  store float 0.000000e+00, ptr %14, align 4
  %16 = load ptr, ptr %7, align 8
  %17 = load ptr, ptr %8, align 8
  %18 = load ptr, ptr %9, align 8
  %19 = load i64, ptr %10, align 8
  %20 = load i64, ptr %11, align 8
  %21 = load i32, ptr %12, align 4
  %22 = call i64 @getGlyphImageNativeInternal(ptr noundef %16, ptr noundef %17, ptr noundef %18, i64 noundef %19, i64 noundef %20, i32 noundef %21, i8 noundef zeroext 0)
  store i64 %22, ptr %15, align 8
  %23 = load i64, ptr %15, align 8
  %24 = inttoptr i64 %23 to ptr
  store ptr %24, ptr %13, align 8
  %25 = load ptr, ptr %13, align 8
  %26 = icmp ne ptr %25, null
  br i1 %26, label %27, label %32

27:                                               ; preds = %6
  %28 = load ptr, ptr %13, align 8
  %29 = getelementptr inbounds %struct.GlyphInfo, ptr %28, i32 0, i32 0
  %30 = load float, ptr %29, align 8
  store float %30, ptr %14, align 4
  %31 = load ptr, ptr %13, align 8
  call void @free(ptr noundef %31) #11
  br label %32

32:                                               ; preds = %27, %6
  %33 = load float, ptr %14, align 4
  ret float %33
}