; Function Attrs: nounwind uwtable
define float @Java_sun_font_FreetypeFontScaler_getGlyphAdvanceNative(ptr noundef %0, ptr noundef %1, ptr noundef %2, i64 noundef %3, i64 noundef %4, i32 noundef %5) local_unnamed_addr #0 {
  %7 = tail call fastcc i64 @getGlyphImageNativeInternal(ptr noundef %0, ptr noundef %1, ptr noundef %2, i64 noundef %3, i64 noundef %4, i32 noundef %5, i8 noundef zeroext 0)
  %.not = icmp eq i64 %7, 0
  br i1 %.not, label %11, label %8

8:                                                ; preds = %6
  %9 = inttoptr i64 %7 to ptr
  %10 = load float, ptr %9, align 8
  tail call void @free(ptr noundef %9) #19
  br label %11

11:                                               ; preds = %8, %6
  %.0 = phi float [ %10, %8 ], [ 0.000000e+00, %6 ]
  ret float %.0
}